; Function Attrs: nounwind uwtable
define void @Cba_NtkCollectDistrib(ptr noundef captures(none) %0, ptr noundef captures(none) %1, ptr noundef captures(none) %2) local_unnamed_addr #1 {
  %4 = getelementptr i8, ptr %0, i64 92
  %.val16 = load i32, ptr %4, align 4
  %5 = icmp sgt i32 %.val16, 1
  br i1 %5, label %.lr.ph, label %._crit_edge

.lr.ph:                                           ; preds = %3
  %6 = getelementptr i8, ptr %0, i64 96
  %7 = getelementptr i8, ptr %0, i64 188
  %8 = getelementptr inbounds nuw i8, ptr %0, i64 184
  %9 = getelementptr i8, ptr %0, i64 192
  br label %10

10:                                               ; preds = %.lr.ph, %33
  %indvars.iv = phi i64 [ 1, %.lr.ph ], [ %indvars.iv.next, %33 ]
  %.val14 = load ptr, ptr %6, align 8
  %11 = getelementptr inbounds nuw i8, ptr %.val14, i64 %indvars.iv
  %12 = load i8, ptr %11, align 1
  %13 = add i8 %12, -90
  %14 = icmp ult i8 %13, -87
  br i1 %14, label %33, label %15

15:                                               ; preds = %10
  %.not = icmp eq i8 %12, 3
  br i1 %.not, label %16, label %28

16:                                               ; preds = %15
  %.val5.i = load i32, ptr %7, align 4
  %17 = icmp slt i32 %.val5.i, 1
  br i1 %17, label %Cba_ObjNtkId.exit, label %18

18:                                               ; preds = %16
  %19 = trunc i64 %indvars.iv to i32
  %20 = add i32 %19, 1
  tail call fastcc void @Vec_IntFillExtra(ptr noundef nonnull %8, i32 noundef %20, i32 noundef 0)
  %.val.i.i.i = load ptr, ptr %9, align 8
  %21 = getelementptr inbounds nuw i32, ptr %.val.i.i.i, i64 %indvars.iv
  %22 = load i32, ptr %21, align 4
  %23 = sext i32 %22 to i64
  br label %Cba_ObjNtkId.exit

Cba_ObjNtkId.exit:                                ; preds = %16, %18
  %24 = phi i64 [ %23, %18 ], [ 0, %16 ]
  %25 = getelementptr inbounds i32, ptr %2, i64 %24
  %26 = load i32, ptr %25, align 4
  %27 = add nsw i32 %26, 1
  store i32 %27, ptr %25, align 4
  br label %33

28:                                               ; preds = %15
  %29 = zext nneg i8 %12 to i64
  %30 = getelementptr inbounds nuw i32, ptr %1, i64 %29
  %31 = load i32, ptr %30, align 4
  %32 = add nsw i32 %31, 1
  store i32 %32, ptr %30, align 4
  br label %33

33:                                               ; preds = %10, %28, %Cba_ObjNtkId.exit
  %indvars.iv.next = add nuw nsw i64 %indvars.iv, 1
  %.val = load i32, ptr %4, align 4
  %34 = sext i32 %.val to i64
  %35 = icmp slt i64 %indvars.iv.next, %34
  br i1 %35, label %10, label %._crit_edge, !llvm.loop !17

._crit_edge:                                      ; preds = %33, %3
  ret void
}